target datalayout = "e-m:e-p270:32:32-p271:32:32-p272:64:64-i64:64-i128:128-f80:128-n8:16:32:64-S128"
target triple = "x86_64-pc-linux-gnu"

%"class.boost::urls::ipv4_address" = type { i32 }
%"struct.std::array" = type { [4 x i8] }

; Function Attrs: mustprogress nounwind uwtable
define linkonce_odr hidden noundef nonnull align 1 dereferenceable(1) ptr @_ZNSt14__array_traitsIhLm4EE6_S_refERA4_Khm(ptr noundef nonnull align 1 dereferenceable(4) %0, i64 noundef %1) #2 comdat align 2 {
  %3 = alloca ptr, align 8
  %4 = alloca i64, align 8
  store ptr %0, ptr %3, align 8, !tbaa !7
  store i64 %1, ptr %4, align 8, !tbaa !19
  %5 = load ptr, ptr %3, align 8, !tbaa !7
  %6 = load i64, ptr %4, align 8, !tbaa !19
  %7 = getelementptr inbounds nuw [4 x i8], ptr %5, i64 0, i64 %6
  ret ptr %7
}

; Function Attrs: mustprogress nounwind uwtable
define linkonce_odr hidden noundef nonnull align 1 dereferenceable(1) ptr @_ZNKSt5arrayIhLm4EEixEm(ptr noundef nonnull align 1 dereferenceable(4) %0, i64 noundef %1) #2 comdat align 2 {
  %3 = alloca ptr, align 8
  %4 = alloca i64, align 8
  store ptr %0, ptr %3, align 8, !tbaa !7
  store i64 %1, ptr %4, align 8, !tbaa !19
  %5 = load ptr, ptr %3, align 8
  %6 = getelementptr inbounds nuw %"struct.std::array", ptr %5, i32 0, i32 0
  %7 = load i64, ptr %4, align 8, !tbaa !19
  %8 = call noundef nonnull align 1 dereferenceable(1) ptr @_ZNSt14__array_traitsIhLm4EE6_S_refERA4_Khm(ptr noundef nonnull align 1 dereferenceable(4) %6, i64 noundef %7) #15
  ret ptr %8
}

; Function Attrs: mustprogress nounwind uwtable
define void @_ZN5boost4urls12ipv4_addressC2ERKSt5arrayIhLm4EE(ptr noundef nonnull align 4 dereferenceable(4) %0, ptr noundef nonnull align 1 dereferenceable(4) %1) unnamed_addr #2 align 2 {
  %3 = alloca ptr, align 8
  %4 = alloca ptr, align 8
  store ptr %0, ptr %3, align 8, !tbaa !7
  store ptr %1, ptr %4, align 8, !tbaa !7
  %5 = load ptr, ptr %3, align 8
  %6 = getelementptr inbounds nuw %"class.boost::urls::ipv4_address", ptr %5, i32 0, i32 0
  store i32 0, ptr %6, align 4, !tbaa !16
  %7 = load ptr, ptr %4, align 8, !tbaa !7
  %8 = call noundef nonnull align 1 dereferenceable(1) ptr @_ZNKSt5arrayIhLm4EEixEm(ptr noundef nonnull align 1 dereferenceable(4) %7, i64 noundef 0) #15
  %9 = load i8, ptr %8, align 1, !tbaa !18
  %10 = zext i8 %9 to i64
  %11 = shl i64 %10, 24
  %12 = load ptr, ptr %4, align 8, !tbaa !7
  %13 = call noundef nonnull align 1 dereferenceable(1) ptr @_ZNKSt5arrayIhLm4EEixEm(ptr noundef nonnull align 1 dereferenceable(4) %12, i64 noundef 1) #15
  %14 = load i8, ptr %13, align 1, !tbaa !18
  %15 = zext i8 %14 to i64
  %16 = shl i64 %15, 16
  %17 = or i64 %11, %16
  %18 = load ptr, ptr %4, align 8, !tbaa !7
  %19 = call noundef nonnull align 1 dereferenceable(1) ptr @_ZNKSt5arrayIhLm4EEixEm(ptr noundef nonnull align 1 dereferenceable(4) %18, i64 noundef 2) #15
  %20 = load i8, ptr %19, align 1, !tbaa !18
  %21 = zext i8 %20 to i64
  %22 = shl i64 %21, 8
  %23 = or i64 %17, %22
  %24 = load ptr, ptr %4, align 8, !tbaa !7
  %25 = call noundef nonnull align 1 dereferenceable(1) ptr @_ZNKSt5arrayIhLm4EEixEm(ptr noundef nonnull align 1 dereferenceable(4) %24, i64 noundef 3) #15
  %26 = load i8, ptr %25, align 1, !tbaa !18
  %27 = zext i8 %26 to i64
  %28 = or i64 %23, %27
  %29 = trunc i64 %28 to i32
  %30 = getelementptr inbounds nuw %"class.boost::urls::ipv4_address", ptr %5, i32 0, i32 0
  store i32 %29, ptr %30, align 4, !tbaa !16
  ret void
}