; Function Attrs: mustprogress nofree norecurse nosync nounwind willreturn memory(argmem: readwrite) uwtable
define void @_ZN5boost4urls12ipv4_addressC2ERKSt5arrayIhLm4EE(ptr nocapture noundef nonnull writeonly align 4 dereferenceable(4) %0, ptr nocapture noundef nonnull readonly align 1 dereferenceable(4) %1) unnamed_addr #2 align 2 {
  store i32 0, ptr %0, align 4, !tbaa !3
  %3 = load i8, ptr %1, align 1, !tbaa !8
  %4 = zext i8 %3 to i32
  %5 = shl nuw i32 %4, 24
  %6 = getelementptr inbounds nuw i8, ptr %1, i64 1
  %7 = load i8, ptr %6, align 1, !tbaa !8
  %8 = zext i8 %7 to i32
  %9 = shl nuw nsw i32 %8, 16
  %10 = or disjoint i32 %9, %5
  %11 = getelementptr inbounds nuw i8, ptr %1, i64 2
  %12 = load i8, ptr %11, align 1, !tbaa !8
  %13 = zext i8 %12 to i32
  %14 = shl nuw nsw i32 %13, 8
  %15 = or disjoint i32 %10, %14
  %16 = getelementptr inbounds nuw i8, ptr %1, i64 3
  %17 = load i8, ptr %16, align 1, !tbaa !8
  %18 = zext i8 %17 to i32
  %19 = or disjoint i32 %15, %18
  store i32 %19, ptr %0, align 4, !tbaa !3
  ret void
}